; Function Attrs: mustprogress uwtable
define i32 @uiter_next32_77(ptr noundef %0) local_unnamed_addr #0 {
  %2 = getelementptr inbounds nuw i8, ptr %0, i64 72
  %3 = load ptr, ptr %2, align 8, !tbaa !22
  %4 = tail call noundef i32 %3(ptr noundef %0)
  %5 = and i32 %4, -1024
  %6 = icmp eq i32 %5, 55296
  br i1 %6, label %7, label %22

7:                                                ; preds = %1
  %8 = load ptr, ptr %2, align 8, !tbaa !22
  %9 = tail call noundef i32 %8(ptr noundef nonnull %0)
  %10 = and i32 %9, -1024
  %11 = icmp eq i32 %10, 56320
  br i1 %11, label %12, label %16

12:                                               ; preds = %7
  %13 = shl nuw nsw i32 %4, 10
  %14 = add nsw i32 %13, -56613888
  %15 = add nuw nsw i32 %14, %9
  br label %22

16:                                               ; preds = %7
  %17 = icmp sgt i32 %9, -1
  br i1 %17, label %18, label %22

18:                                               ; preds = %16
  %19 = getelementptr inbounds nuw i8, ptr %0, i64 40
  %20 = load ptr, ptr %19, align 8, !tbaa !20
  %21 = tail call noundef i32 %20(ptr noundef nonnull %0, i32 noundef -1, i32 noundef 1)
  br label %22

22:                                               ; preds = %12, %18, %16, %1
  %.0 = phi i32 [ %15, %12 ], [ %4, %18 ], [ %4, %16 ], [ %4, %1 ]
  ret i32 %.0
}